#include <math.h>
#include <stdio.h>
#include <stdlib.h>
#include <string.h>

int main()
{
int n,k,i,last=1;
float m=1;
int M;
scanf("%d %d",&n,&k);
   for(i=0;i<2*n-1;i++){
       if(i%2==0){
          m=m*n+k;
          }else{
                m=m/(n-1);
                M=m;
                if((m-M)!=0){
                  last+=1;
                  m=last;
                  i=-1;
                  continue;
                  }
                }
       }
printf("%.0f",m);
return 0;
}